target datalayout = "e-m:e-p270:32:32-p271:32:32-p272:64:64-i64:64-i128:128-f80:128-n8:16:32:64-S128"
target triple = "x86_64-pc-linux-gnu"

%struct.wtap_rec = type { i32, i32, i32, %struct.nstime_t, i32, %struct.nstime_t, i8, %union.anon, ptr, i8, %struct.Buffer, %struct.Buffer }
%struct.nstime_t = type { i64, i32 }
%union.anon = type { %struct.wtap_packet_header }
%struct.wtap_packet_header = type { i32, i32, i32, i32, %union.wtap_pseudo_header }
%union.wtap_pseudo_header = type { %struct.erf_mc_phdr }
%struct.erf_mc_phdr = type { %struct.erf_phdr, [16 x %struct.erf_ehdr], %union.anon.1 }
%struct.erf_phdr = type { i64, i8, i8, i16, i16, i16 }
%struct.erf_ehdr = type { i64 }
%union.anon.1 = type { i32 }
%struct.Buffer = type { ptr, i64, i64, i64 }
%struct.LA_TmpInfo = type { i8, %struct.nstime_t, i32, i32, i32 }
%struct.wtap_dumper = type { ptr, i32, i32, i32, i32, i8, i64, ptr, ptr, ptr, ptr, ptr, ptr, ptr, ptr, ptr, ptr, ptr, ptr, ptr, i32, i32, i32 }

@z64 = internal constant [64 x i8] zeroinitializer, align 16

; Function Attrs: null_pointer_is_valid sspstrong uwtable
define internal zeroext i1 @s0write(ptr noundef %0, i64 noundef %1, ptr noundef %2) #0 {
  %4 = alloca i1, align 1
  %5 = alloca ptr, align 8
  %6 = alloca i64, align 8
  %7 = alloca ptr, align 8
  %8 = alloca i64, align 8
  %9 = alloca i32, align 4
  store ptr %0, ptr %5, align 8
  store i64 %1, ptr %6, align 8
  store ptr %2, ptr %7, align 8
  call void @llvm.lifetime.start.p0(i64 8, ptr %8) #11
  br label %10

10:                                               ; preds = %26, %3
  %11 = load i64, ptr %6, align 8
  %12 = icmp ne i64 %11, 0
  br i1 %12, label %13, label %30

13:                                               ; preds = %10
  %14 = load i64, ptr %6, align 8
  %15 = icmp ugt i64 %14, 64
  br i1 %15, label %16, label %17

16:                                               ; preds = %13
  br label %19

17:                                               ; preds = %13
  %18 = load i64, ptr %6, align 8
  br label %19

19:                                               ; preds = %17, %16
  %20 = phi i64 [ 64, %16 ], [ %18, %17 ]
  store i64 %20, ptr %8, align 8
  %21 = load ptr, ptr %5, align 8
  %22 = load i64, ptr %8, align 8
  %23 = load ptr, ptr %7, align 8
  %24 = call zeroext i1 @wtap_dump_file_write(ptr noundef %21, ptr noundef @z64, i64 noundef %22, ptr noundef %23)
  br i1 %24, label %26, label %25

25:                                               ; preds = %19
  store i1 false, ptr %4, align 1
  store i32 1, ptr %9, align 4
  br label %31

26:                                               ; preds = %19
  %27 = load i64, ptr %8, align 8
  %28 = load i64, ptr %6, align 8
  %29 = sub i64 %28, %27
  store i64 %29, ptr %6, align 8
  br label %10, !llvm.loop !8

30:                                               ; preds = %10
  store i1 true, ptr %4, align 1
  store i32 1, ptr %9, align 4
  br label %31

31:                                               ; preds = %30, %25
  call void @llvm.lifetime.end.p0(i64 8, ptr %8) #11
  %32 = load i1, ptr %4, align 1
  ret i1 %32
}

; Function Attrs: null_pointer_is_valid sspstrong uwtable
define internal zeroext i1 @s32write(ptr noundef %0, i32 noundef %1, ptr noundef %2) #0 {
  %4 = alloca ptr, align 8
  %5 = alloca i32, align 4
  %6 = alloca ptr, align 8
  %7 = alloca i32, align 4
  store ptr %0, ptr %4, align 8
  store i32 %1, ptr %5, align 4
  store ptr %2, ptr %6, align 8
  call void @llvm.lifetime.start.p0(i64 4, ptr %7) #11
  %8 = load i32, ptr %5, align 4
  store i32 %8, ptr %7, align 4
  %9 = load ptr, ptr %4, align 8
  %10 = load ptr, ptr %6, align 8
  %11 = call zeroext i1 @wtap_dump_file_write(ptr noundef %9, ptr noundef %7, i64 noundef 4, ptr noundef %10)
  call void @llvm.lifetime.end.p0(i64 4, ptr %7) #11
  ret i1 %11
}

; Function Attrs: null_pointer_is_valid sspstrong uwtable
define internal zeroext i1 @s16write(ptr noundef %0, i16 noundef zeroext %1, ptr noundef %2) #0 {
  %4 = alloca ptr, align 8
  %5 = alloca i16, align 2
  %6 = alloca ptr, align 8
  %7 = alloca i16, align 2
  store ptr %0, ptr %4, align 8
  store i16 %1, ptr %5, align 2
  store ptr %2, ptr %6, align 8
  call void @llvm.lifetime.start.p0(i64 2, ptr %7) #11
  %8 = load i16, ptr %5, align 2
  store i16 %8, ptr %7, align 2
  %9 = load ptr, ptr %4, align 8
  %10 = load ptr, ptr %6, align 8
  %11 = call zeroext i1 @wtap_dump_file_write(ptr noundef %9, ptr noundef %7, i64 noundef 2, ptr noundef %10)
  call void @llvm.lifetime.end.p0(i64 2, ptr %7) #11
  ret i1 %11
}

; Function Attrs: null_pointer_is_valid sspstrong uwtable
define internal zeroext i1 @lanalyzer_dump(ptr noundef %0, ptr noundef %1, ptr noundef %2, ptr noundef %3, ptr noundef %4) #0 {
  %6 = alloca i1, align 1
  %7 = alloca ptr, align 8
  %8 = alloca ptr, align 8
  %9 = alloca ptr, align 8
  %10 = alloca ptr, align 8
  %11 = alloca ptr, align 8
  %12 = alloca i64, align 8
  %13 = alloca i32, align 4
  %14 = alloca ptr, align 8
  %15 = alloca %struct.nstime_t, align 8
  %16 = alloca i32, align 4
  %17 = alloca i32, align 4
  store ptr %0, ptr %7, align 8
  store ptr %1, ptr %8, align 8
  store ptr %2, ptr %9, align 8
  store ptr %3, ptr %10, align 8
  store ptr %4, ptr %11, align 8
  call void @llvm.lifetime.start.p0(i64 8, ptr %12) #11
  call void @llvm.lifetime.start.p0(i64 4, ptr %13) #11
  call void @llvm.lifetime.start.p0(i64 8, ptr %14) #11
  %18 = load ptr, ptr %7, align 8
  %19 = getelementptr inbounds nuw %struct.wtap_dumper, ptr %18, i32 0, i32 7
  %20 = load ptr, ptr %19, align 8
  store ptr %20, ptr %14, align 8
  call void @llvm.lifetime.start.p0(i64 16, ptr %15) #11
  call void @llvm.lifetime.start.p0(i64 4, ptr %16) #11
  %21 = load ptr, ptr %8, align 8
  %22 = getelementptr inbounds nuw %struct.wtap_rec, ptr %21, i32 0, i32 7
  %23 = getelementptr inbounds nuw %struct.wtap_packet_header, ptr %22, i32 0, i32 0
  %24 = load i32, ptr %23, align 8
  %25 = add i32 %24, 32
  %26 = add i32 %25, 4
  store i32 %26, ptr %16, align 4
  %27 = load ptr, ptr %8, align 8
  %28 = getelementptr inbounds nuw %struct.wtap_rec, ptr %27, i32 0, i32 0
  %29 = load i32, ptr %28, align 8
  %30 = icmp ne i32 %29, 0
  br i1 %30, label %31, label %33

31:                                               ; preds = %5
  %32 = load ptr, ptr %10, align 8
  store i32 -24, ptr %32, align 4
  store i1 false, ptr %6, align 1
  store i32 1, ptr %17, align 4
  br label %192

33:                                               ; preds = %5
  %34 = load ptr, ptr %7, align 8
  %35 = getelementptr inbounds nuw %struct.wtap_dumper, ptr %34, i32 0, i32 3
  %36 = load i32, ptr %35, align 8
  %37 = load ptr, ptr %8, align 8
  %38 = getelementptr inbounds nuw %struct.wtap_rec, ptr %37, i32 0, i32 7
  %39 = getelementptr inbounds nuw %struct.wtap_packet_header, ptr %38, i32 0, i32 2
  %40 = load i32, ptr %39, align 8
  %41 = icmp ne i32 %36, %40
  br i1 %41, label %42, label %44

42:                                               ; preds = %33
  %43 = load ptr, ptr %10, align 8
  store i32 -9, ptr %43, align 4
  store i1 false, ptr %6, align 1
  store i32 1, ptr %17, align 4
  br label %192

44:                                               ; preds = %33
  %45 = load ptr, ptr %7, align 8
  %46 = getelementptr inbounds nuw %struct.wtap_dumper, ptr %45, i32 0, i32 6
  %47 = load i64, ptr %46, align 8
  %48 = load i32, ptr %16, align 4
  %49 = sext i32 %48 to i64
  %50 = add i64 %47, %49
  %51 = icmp sgt i64 %50, 33554432
  br i1 %51, label %52, label %54

52:                                               ; preds = %44
  %53 = load ptr, ptr %10, align 8
  store i32 27, ptr %53, align 4
  store i1 false, ptr %6, align 1
  store i32 1, ptr %17, align 4
  br label %192

54:                                               ; preds = %44
  %55 = load ptr, ptr %8, align 8
  %56 = getelementptr inbounds nuw %struct.wtap_rec, ptr %55, i32 0, i32 7
  %57 = getelementptr inbounds nuw %struct.wtap_packet_header, ptr %56, i32 0, i32 0
  %58 = load i32, ptr %57, align 8
  %59 = load ptr, ptr %8, align 8
  %60 = getelementptr inbounds nuw %struct.wtap_rec, ptr %59, i32 0, i32 7
  %61 = getelementptr inbounds nuw %struct.wtap_packet_header, ptr %60, i32 0, i32 0
  %62 = load i32, ptr %61, align 8
  %63 = icmp ne i32 %62, 0
  %64 = select i1 %63, i32 32, i32 0
  %65 = add i32 %58, %64
  store i32 %65, ptr %13, align 4
  %66 = load i32, ptr %13, align 4
  %67 = icmp sgt i32 %66, 65535
  br i1 %67, label %68, label %70

68:                                               ; preds = %54
  %69 = load ptr, ptr %10, align 8
  store i32 -22, ptr %69, align 4
  store i1 false, ptr %6, align 1
  store i32 1, ptr %17, align 4
  br label %192

70:                                               ; preds = %54
  %71 = load ptr, ptr %7, align 8
  %72 = load ptr, ptr %10, align 8
  %73 = call zeroext i1 @s16write(ptr noundef %71, i16 noundef zeroext 4101, ptr noundef %72)
  br i1 %73, label %75, label %74

74:                                               ; preds = %70
  store i1 false, ptr %6, align 1
  store i32 1, ptr %17, align 4
  br label %192

75:                                               ; preds = %70
  %76 = load ptr, ptr %7, align 8
  %77 = load i32, ptr %13, align 4
  %78 = trunc i32 %77 to i16
  %79 = load ptr, ptr %10, align 8
  %80 = call zeroext i1 @s16write(ptr noundef %76, i16 noundef zeroext %78, ptr noundef %79)
  br i1 %80, label %82, label %81

81:                                               ; preds = %75
  store i1 false, ptr %6, align 1
  store i32 1, ptr %17, align 4
  br label %192

82:                                               ; preds = %75
  %83 = load ptr, ptr %14, align 8
  %84 = getelementptr inbounds nuw %struct.LA_TmpInfo, ptr %83, i32 0, i32 0
  %85 = load i8, ptr %84, align 8, !range !6, !noundef !7
  %86 = trunc i8 %85 to i1
  br i1 %86, label %103, label %87

87:                                               ; preds = %82
  %88 = load ptr, ptr %14, align 8
  %89 = getelementptr inbounds nuw %struct.LA_TmpInfo, ptr %88, i32 0, i32 1
  %90 = load ptr, ptr %8, align 8
  %91 = getelementptr inbounds nuw %struct.wtap_rec, ptr %90, i32 0, i32 3
  call void @llvm.memcpy.p0.p0.i64(ptr align 8 %89, ptr align 8 %91, i64 16, i1 false)
  %92 = load ptr, ptr %14, align 8
  %93 = getelementptr inbounds nuw %struct.LA_TmpInfo, ptr %92, i32 0, i32 2
  store i32 0, ptr %93, align 8
  %94 = load ptr, ptr %14, align 8
  %95 = getelementptr inbounds nuw %struct.LA_TmpInfo, ptr %94, i32 0, i32 0
  store i8 1, ptr %95, align 8
  %96 = load ptr, ptr %7, align 8
  %97 = getelementptr inbounds nuw %struct.wtap_dumper, ptr %96, i32 0, i32 3
  %98 = load i32, ptr %97, align 8
  %99 = load ptr, ptr %14, align 8
  %100 = getelementptr inbounds nuw %struct.LA_TmpInfo, ptr %99, i32 0, i32 3
  store i32 %98, ptr %100, align 4
  %101 = load ptr, ptr %14, align 8
  %102 = getelementptr inbounds nuw %struct.LA_TmpInfo, ptr %101, i32 0, i32 4
  store i32 0, ptr %102, align 8
  br label %103

103:                                              ; preds = %87, %82
  %104 = load ptr, ptr %7, align 8
  %105 = load ptr, ptr %10, align 8
  %106 = call zeroext i1 @s16write(ptr noundef %104, i16 noundef zeroext 1, ptr noundef %105)
  br i1 %106, label %108, label %107

107:                                              ; preds = %103
  store i1 false, ptr %6, align 1
  store i32 1, ptr %17, align 4
  br label %192

108:                                              ; preds = %103
  %109 = load ptr, ptr %7, align 8
  %110 = load ptr, ptr %10, align 8
  %111 = call zeroext i1 @s16write(ptr noundef %109, i16 noundef zeroext 8, ptr noundef %110)
  br i1 %111, label %113, label %112

112:                                              ; preds = %108
  store i1 false, ptr %6, align 1
  store i32 1, ptr %17, align 4
  br label %192

113:                                              ; preds = %108
  %114 = load ptr, ptr %7, align 8
  %115 = load ptr, ptr %8, align 8
  %116 = getelementptr inbounds nuw %struct.wtap_rec, ptr %115, i32 0, i32 7
  %117 = getelementptr inbounds nuw %struct.wtap_packet_header, ptr %116, i32 0, i32 1
  %118 = load i32, ptr %117, align 4
  %119 = add i32 %118, 4
  %120 = trunc i32 %119 to i16
  %121 = load ptr, ptr %10, align 8
  %122 = call zeroext i1 @s16write(ptr noundef %114, i16 noundef zeroext %120, ptr noundef %121)
  br i1 %122, label %124, label %123

123:                                              ; preds = %113
  store i1 false, ptr %6, align 1
  store i32 1, ptr %17, align 4
  br label %192

124:                                              ; preds = %113
  %125 = load ptr, ptr %7, align 8
  %126 = load ptr, ptr %8, align 8
  %127 = getelementptr inbounds nuw %struct.wtap_rec, ptr %126, i32 0, i32 7
  %128 = getelementptr inbounds nuw %struct.wtap_packet_header, ptr %127, i32 0, i32 0
  %129 = load i32, ptr %128, align 8
  %130 = trunc i32 %129 to i16
  %131 = load ptr, ptr %10, align 8
  %132 = call zeroext i1 @s16write(ptr noundef %125, i16 noundef zeroext %130, ptr noundef %131)
  br i1 %132, label %134, label %133

133:                                              ; preds = %124
  store i1 false, ptr %6, align 1
  store i32 1, ptr %17, align 4
  br label %192

134:                                              ; preds = %124
  %135 = load ptr, ptr %8, align 8
  %136 = getelementptr inbounds nuw %struct.wtap_rec, ptr %135, i32 0, i32 3
  %137 = load ptr, ptr %14, align 8
  %138 = getelementptr inbounds nuw %struct.LA_TmpInfo, ptr %137, i32 0, i32 1
  call void @nstime_delta(ptr noundef %15, ptr noundef %136, ptr noundef %138)
  %139 = getelementptr inbounds nuw %struct.nstime_t, ptr %15, i32 0, i32 1
  %140 = load i32, ptr %139, align 8
  %141 = add i32 %140, 250
  %142 = sdiv i32 %141, 500
  %143 = sext i32 %142 to i64
  store i64 %143, ptr %12, align 8
  %144 = getelementptr inbounds nuw %struct.nstime_t, ptr %15, i32 0, i32 0
  %145 = load i64, ptr %144, align 8
  %146 = mul i64 %145, 2000000
  %147 = load i64, ptr %12, align 8
  %148 = add i64 %147, %146
  store i64 %148, ptr %12, align 8
  %149 = load ptr, ptr %7, align 8
  %150 = load i64, ptr %12, align 8
  %151 = load ptr, ptr %10, align 8
  %152 = call zeroext i1 @s48write(ptr noundef %149, i64 noundef %150, ptr noundef %151)
  br i1 %152, label %154, label %153

153:                                              ; preds = %134
  store i1 false, ptr %6, align 1
  store i32 1, ptr %17, align 4
  br label %192

154:                                              ; preds = %134
  %155 = load ptr, ptr %7, align 8
  %156 = load ptr, ptr %14, align 8
  %157 = getelementptr inbounds nuw %struct.LA_TmpInfo, ptr %156, i32 0, i32 2
  %158 = load i32, ptr %157, align 8
  %159 = add i32 %158, 1
  store i32 %159, ptr %157, align 8
  %160 = load ptr, ptr %10, align 8
  %161 = call zeroext i1 @s32write(ptr noundef %155, i32 noundef %159, ptr noundef %160)
  br i1 %161, label %163, label %162

162:                                              ; preds = %154
  store i1 false, ptr %6, align 1
  store i32 1, ptr %17, align 4
  br label %192

163:                                              ; preds = %154
  %164 = load ptr, ptr %7, align 8
  %165 = load ptr, ptr %14, align 8
  %166 = getelementptr inbounds nuw %struct.LA_TmpInfo, ptr %165, i32 0, i32 4
  %167 = load i32, ptr %166, align 8
  %168 = trunc i32 %167 to i16
  %169 = load ptr, ptr %10, align 8
  %170 = call zeroext i1 @s16write(ptr noundef %164, i16 noundef zeroext %168, ptr noundef %169)
  br i1 %170, label %172, label %171

171:                                              ; preds = %163
  store i1 false, ptr %6, align 1
  store i32 1, ptr %17, align 4
  br label %192

172:                                              ; preds = %163
  %173 = load i32, ptr %13, align 4
  %174 = load ptr, ptr %14, align 8
  %175 = getelementptr inbounds nuw %struct.LA_TmpInfo, ptr %174, i32 0, i32 4
  store i32 %173, ptr %175, align 8
  %176 = load ptr, ptr %7, align 8
  %177 = load ptr, ptr %10, align 8
  %178 = call zeroext i1 @s0write(ptr noundef %176, i64 noundef 12, ptr noundef %177)
  br i1 %178, label %180, label %179

179:                                              ; preds = %172
  store i1 false, ptr %6, align 1
  store i32 1, ptr %17, align 4
  br label %192

180:                                              ; preds = %172
  %181 = load ptr, ptr %7, align 8
  %182 = load ptr, ptr %9, align 8
  %183 = load ptr, ptr %8, align 8
  %184 = getelementptr inbounds nuw %struct.wtap_rec, ptr %183, i32 0, i32 7
  %185 = getelementptr inbounds nuw %struct.wtap_packet_header, ptr %184, i32 0, i32 0
  %186 = load i32, ptr %185, align 8
  %187 = zext i32 %186 to i64
  %188 = load ptr, ptr %10, align 8
  %189 = call zeroext i1 @wtap_dump_file_write(ptr noundef %181, ptr noundef %182, i64 noundef %187, ptr noundef %188)
  br i1 %189, label %191, label %190

190:                                              ; preds = %180
  store i1 false, ptr %6, align 1
  store i32 1, ptr %17, align 4
  br label %192

191:                                              ; preds = %180
  store i1 true, ptr %6, align 1
  store i32 1, ptr %17, align 4
  br label %192

192:                                              ; preds = %191, %190, %179, %171, %162, %153, %133, %123, %112, %107, %81, %74, %68, %52, %42, %31
  call void @llvm.lifetime.end.p0(i64 4, ptr %16) #11
  call void @llvm.lifetime.end.p0(i64 16, ptr %15) #11
  call void @llvm.lifetime.end.p0(i64 8, ptr %14) #11
  call void @llvm.lifetime.end.p0(i64 4, ptr %13) #11
  call void @llvm.lifetime.end.p0(i64 8, ptr %12) #11
  %193 = load i1, ptr %6, align 1
  ret i1 %193
}