; Function Attrs: null_pointer_is_valid sspstrong uwtable
define internal zeroext i1 @lanalyzer_dump(ptr noundef %0, ptr noundef %1, ptr noundef %2, ptr noundef %3, ptr readnone captures(none) %4) #0 {
  %6 = alloca i16, align 2
  %7 = alloca i32, align 4
  %8 = alloca i16, align 2
  %9 = alloca i16, align 2
  %10 = alloca i16, align 2
  %11 = alloca i16, align 2
  %12 = alloca i16, align 2
  %13 = alloca i16, align 2
  %14 = alloca %struct.nstime_t, align 8
  %15 = getelementptr inbounds nuw i8, ptr %0, i64 40
  %16 = load ptr, ptr %15, align 8
  call void @llvm.lifetime.start.p0(i64 16, ptr nonnull %14) #10
  %17 = getelementptr inbounds nuw i8, ptr %1, i64 64
  %18 = load i32, ptr %17, align 8
  %19 = add i32 %18, 36
  %20 = load i32, ptr %1, align 8
  %.not = icmp eq i32 %20, 0
  br i1 %.not, label %22, label %21

21:                                               ; preds = %5
  store i32 -24, ptr %3, align 4
  br label %96

22:                                               ; preds = %5
  %23 = getelementptr inbounds nuw i8, ptr %0, i64 16
  %24 = load i32, ptr %23, align 8
  %25 = getelementptr inbounds nuw i8, ptr %1, i64 72
  %26 = load i32, ptr %25, align 8
  %.not58 = icmp eq i32 %24, %26
  br i1 %.not58, label %28, label %27

27:                                               ; preds = %22
  store i32 -9, ptr %3, align 4
  br label %96

28:                                               ; preds = %22
  %29 = getelementptr inbounds nuw i8, ptr %0, i64 32
  %30 = load i64, ptr %29, align 8
  %31 = sext i32 %19 to i64
  %32 = add i64 %30, %31
  %33 = icmp sgt i64 %32, 33554432
  br i1 %33, label %34, label %35

34:                                               ; preds = %28
  store i32 27, ptr %3, align 4
  br label %96

35:                                               ; preds = %28
  %.not59 = icmp eq i32 %18, 0
  %36 = select i1 %.not59, i32 0, i32 32
  %37 = add i32 %36, %18
  %38 = icmp sgt i32 %37, 65535
  br i1 %38, label %39, label %40

39:                                               ; preds = %35
  store i32 -22, ptr %3, align 4
  br label %96

40:                                               ; preds = %35
  call void @llvm.lifetime.start.p0(i64 2, ptr nonnull %13) #10
  store i16 4101, ptr %13, align 2
  %41 = call zeroext i1 @wtap_dump_file_write(ptr noundef %0, ptr noundef nonnull %13, i64 noundef 2, ptr noundef %3)
  call void @llvm.lifetime.end.p0(i64 2, ptr nonnull %13) #10
  br i1 %41, label %42, label %96

42:                                               ; preds = %40
  %43 = trunc i32 %37 to i16
  call void @llvm.lifetime.start.p0(i64 2, ptr nonnull %12) #10
  store i16 %43, ptr %12, align 2
  %44 = call zeroext i1 @wtap_dump_file_write(ptr noundef %0, ptr noundef nonnull %12, i64 noundef 2, ptr noundef %3)
  call void @llvm.lifetime.end.p0(i64 2, ptr nonnull %12) #10
  br i1 %44, label %45, label %96

45:                                               ; preds = %42
  %46 = load i8, ptr %16, align 8, !range !6, !noundef !7
  %47 = trunc nuw i8 %46 to i1
  br i1 %47, label %55, label %48

48:                                               ; preds = %45
  %49 = getelementptr inbounds nuw i8, ptr %16, i64 8
  %50 = getelementptr inbounds nuw i8, ptr %1, i64 16
  call void @llvm.memcpy.p0.p0.i64(ptr noundef nonnull align 8 dereferenceable(16) %49, ptr noundef nonnull align 8 dereferenceable(16) %50, i64 16, i1 false)
  %51 = getelementptr inbounds nuw i8, ptr %16, i64 24
  store i32 0, ptr %51, align 8
  store i8 1, ptr %16, align 8
  %52 = load i32, ptr %23, align 8
  %53 = getelementptr inbounds nuw i8, ptr %16, i64 28
  store i32 %52, ptr %53, align 4
  %54 = getelementptr inbounds nuw i8, ptr %16, i64 32
  store i32 0, ptr %54, align 8
  br label %55

55:                                               ; preds = %48, %45
  call void @llvm.lifetime.start.p0(i64 2, ptr nonnull %11) #10
  store i16 1, ptr %11, align 2
  %56 = call zeroext i1 @wtap_dump_file_write(ptr noundef %0, ptr noundef nonnull %11, i64 noundef 2, ptr noundef %3)
  call void @llvm.lifetime.end.p0(i64 2, ptr nonnull %11) #10
  br i1 %56, label %57, label %96

57:                                               ; preds = %55
  call void @llvm.lifetime.start.p0(i64 2, ptr nonnull %10) #10
  store i16 8, ptr %10, align 2
  %58 = call zeroext i1 @wtap_dump_file_write(ptr noundef %0, ptr noundef nonnull %10, i64 noundef 2, ptr noundef %3)
  call void @llvm.lifetime.end.p0(i64 2, ptr nonnull %10) #10
  br i1 %58, label %59, label %96

59:                                               ; preds = %57
  %60 = getelementptr inbounds nuw i8, ptr %1, i64 68
  %61 = load i32, ptr %60, align 4
  %62 = trunc i32 %61 to i16
  %63 = add i16 %62, 4
  call void @llvm.lifetime.start.p0(i64 2, ptr nonnull %9) #10
  store i16 %63, ptr %9, align 2
  %64 = call zeroext i1 @wtap_dump_file_write(ptr noundef %0, ptr noundef nonnull %9, i64 noundef 2, ptr noundef %3)
  call void @llvm.lifetime.end.p0(i64 2, ptr nonnull %9) #10
  br i1 %64, label %65, label %96

65:                                               ; preds = %59
  %66 = load i32, ptr %17, align 8
  %67 = trunc i32 %66 to i16
  call void @llvm.lifetime.start.p0(i64 2, ptr nonnull %8) #10
  store i16 %67, ptr %8, align 2
  %68 = call zeroext i1 @wtap_dump_file_write(ptr noundef %0, ptr noundef nonnull %8, i64 noundef 2, ptr noundef %3)
  call void @llvm.lifetime.end.p0(i64 2, ptr nonnull %8) #10
  br i1 %68, label %69, label %96

69:                                               ; preds = %65
  %70 = getelementptr inbounds nuw i8, ptr %1, i64 16
  %71 = getelementptr inbounds nuw i8, ptr %16, i64 8
  call void @nstime_delta(ptr noundef nonnull %14, ptr noundef nonnull %70, ptr noundef nonnull %71)
  %72 = getelementptr inbounds nuw i8, ptr %14, i64 8
  %73 = load i32, ptr %72, align 8
  %74 = add i32 %73, 250
  %75 = sdiv i32 %74, 500
  %76 = sext i32 %75 to i64
  %77 = load i64, ptr %14, align 8
  %78 = mul i64 %77, 2000000
  %79 = add i64 %78, %76
  %80 = call fastcc zeroext i1 @s48write(ptr noundef %0, i64 noundef %79, ptr noundef %3)
  br i1 %80, label %81, label %96

81:                                               ; preds = %69
  %82 = getelementptr inbounds nuw i8, ptr %16, i64 24
  %83 = load i32, ptr %82, align 8
  %84 = add i32 %83, 1
  store i32 %84, ptr %82, align 8
  call void @llvm.lifetime.start.p0(i64 4, ptr nonnull %7) #10
  store i32 %84, ptr %7, align 4
  %85 = call zeroext i1 @wtap_dump_file_write(ptr noundef %0, ptr noundef nonnull %7, i64 noundef 4, ptr noundef %3)
  call void @llvm.lifetime.end.p0(i64 4, ptr nonnull %7) #10
  br i1 %85, label %86, label %96

86:                                               ; preds = %81
  %87 = getelementptr inbounds nuw i8, ptr %16, i64 32
  %88 = load i32, ptr %87, align 8
  %89 = trunc i32 %88 to i16
  call void @llvm.lifetime.start.p0(i64 2, ptr nonnull %6) #10
  store i16 %89, ptr %6, align 2
  %90 = call zeroext i1 @wtap_dump_file_write(ptr noundef %0, ptr noundef nonnull %6, i64 noundef 2, ptr noundef %3)
  call void @llvm.lifetime.end.p0(i64 2, ptr nonnull %6) #10
  br i1 %90, label %s0write.exit, label %96

s0write.exit:                                     ; preds = %86
  store i32 %37, ptr %87, align 8
  %91 = call zeroext i1 @wtap_dump_file_write(ptr noundef %0, ptr noundef nonnull @z64, i64 noundef 12, ptr noundef %3)
  br i1 %91, label %92, label %96

92:                                               ; preds = %s0write.exit
  %93 = load i32, ptr %17, align 8
  %94 = zext i32 %93 to i64
  %95 = call zeroext i1 @wtap_dump_file_write(ptr noundef %0, ptr noundef %2, i64 noundef %94, ptr noundef %3)
  br label %96

96:                                               ; preds = %92, %s0write.exit, %86, %81, %69, %65, %59, %57, %55, %42, %40, %39, %34, %27, %21
  %.0 = phi i1 [ false, %21 ], [ false, %27 ], [ false, %34 ], [ false, %39 ], [ false, %40 ], [ false, %42 ], [ false, %55 ], [ false, %57 ], [ false, %59 ], [ false, %65 ], [ false, %69 ], [ false, %81 ], [ false, %86 ], [ false, %s0write.exit ], [ %95, %92 ]
  call void @llvm.lifetime.end.p0(i64 16, ptr nonnull %14) #10
  ret i1 %.0
}